; ModuleID = '47/2909.c'
source_filename = "47/2909.c"
target datalayout = "e-m:e-p270:32:32-p271:32:32-p272:64:64-i64:64-f80:128-n8:16:32:64-S128"
target triple = "x86_64-pc-linux-gnu"

@.str = private unnamed_addr constant [3 x i8] c"%d\00", align 1
@.str.1 = private unnamed_addr constant [4 x i8] c" %d\00", align 1

; Function Attrs: noinline nounwind uwtable
define dso_local void @main() #0 {
  %1 = alloca i32, align 4
  %2 = alloca i32, align 4
  %3 = alloca i32*, align 8
  %4 = alloca [100 x i32], align 16
  %5 = alloca i32, align 4
  %6 = alloca i32, align 4
  %7 = bitcast [100 x i32]* %4 to i8*
  call void @llvm.memset.p0i8.i64(i8* align 16 %7, i8 0, i64 400, i1 false)
  store i32 0, i32* %6, align 4
  %8 = call i32 (i8*, ...) @__isoc99_scanf(i8* getelementptr inbounds ([3 x i8], [3 x i8]* @.str, i64 0, i64 0), i32* %5)
  %9 = getelementptr inbounds [100 x i32], [100 x i32]* %4, i64 0, i64 0
  store i32* %9, i32** %3, align 8
  br label %10

10:                                               ; preds = %20, %0
  %11 = load i32*, i32** %3, align 8
  %12 = load i32, i32* %5, align 4
  %13 = getelementptr inbounds [100 x i32], [100 x i32]* %4, i64 0, i64 0
  %14 = sext i32 %12 to i64
  %15 = getelementptr inbounds i32, i32* %13, i64 %14
  %16 = icmp ult i32* %11, %15
  br i1 %16, label %17, label %23

17:                                               ; preds = %10
  %18 = load i32*, i32** %3, align 8
  %19 = call i32 (i8*, ...) @__isoc99_scanf(i8* getelementptr inbounds ([3 x i8], [3 x i8]* @.str, i64 0, i64 0), i32* %18)
  br label %20

20:                                               ; preds = %17
  %21 = load i32*, i32** %3, align 8
  %22 = getelementptr inbounds i32, i32* %21, i32 1
  store i32* %22, i32** %3, align 8
  br label %10

23:                                               ; preds = %10
  %24 = getelementptr inbounds [100 x i32], [100 x i32]* %4, i64 0, i64 0
  store i32* %24, i32** %3, align 8
  store i32 0, i32* %1, align 4
  br label %25

25:                                               ; preds = %64, %23
  %26 = load i32, i32* %1, align 4
  %27 = load i32, i32* %5, align 4
  %28 = sub nsw i32 %27, 1
  %29 = icmp slt i32 %26, %28
  br i1 %29, label %30, label %67

30:                                               ; preds = %25
  %31 = getelementptr inbounds [100 x i32], [100 x i32]* %4, i64 0, i64 0
  %32 = load i32, i32* %5, align 4
  %33 = sext i32 %32 to i64
  %34 = getelementptr inbounds i32, i32* %31, i64 %33
  %35 = getelementptr inbounds i32, i32* %34, i64 -1
  %36 = load i32, i32* %35, align 4
  store i32 %36, i32* %6, align 4
  %37 = getelementptr inbounds [100 x i32], [100 x i32]* %4, i64 0, i64 0
  %38 = load i32, i32* %5, align 4
  %39 = sext i32 %38 to i64
  %40 = getelementptr inbounds i32, i32* %37, i64 %39
  %41 = getelementptr inbounds i32, i32* %40, i64 -1
  store i32* %41, i32** %3, align 8
  br label %42

42:                                               ; preds = %55, %30
  %43 = load i32*, i32** %3, align 8
  %44 = getelementptr inbounds [100 x i32], [100 x i32]* %4, i64 0, i64 0
  %45 = load i32, i32* %1, align 4
  %46 = sext i32 %45 to i64
  %47 = getelementptr inbounds i32, i32* %44, i64 %46
  %48 = getelementptr inbounds i32, i32* %47, i64 1
  %49 = icmp uge i32* %43, %48
  br i1 %49, label %50, label %58

50:                                               ; preds = %42
  %51 = load i32*, i32** %3, align 8
  %52 = getelementptr inbounds i32, i32* %51, i64 -1
  %53 = load i32, i32* %52, align 4
  %54 = load i32*, i32** %3, align 8
  store i32 %53, i32* %54, align 4
  br label %55

55:                                               ; preds = %50
  %56 = load i32*, i32** %3, align 8
  %57 = getelementptr inbounds i32, i32* %56, i32 -1
  store i32* %57, i32** %3, align 8
  br label %42

58:                                               ; preds = %42
  %59 = load i32, i32* %6, align 4
  %60 = getelementptr inbounds [100 x i32], [100 x i32]* %4, i64 0, i64 0
  %61 = load i32, i32* %1, align 4
  %62 = sext i32 %61 to i64
  %63 = getelementptr inbounds i32, i32* %60, i64 %62
  store i32 %59, i32* %63, align 4
  br label %64

64:                                               ; preds = %58
  %65 = load i32, i32* %1, align 4
  %66 = add nsw i32 %65, 1
  store i32 %66, i32* %1, align 4
  br label %25

67:                                               ; preds = %25
  %68 = getelementptr inbounds [100 x i32], [100 x i32]* %4, i64 0, i64 0
  %69 = load i32, i32* %68, align 16
  %70 = call i32 (i8*, ...) @printf(i8* getelementptr inbounds ([3 x i8], [3 x i8]* @.str, i64 0, i64 0), i32 %69)
  %71 = getelementptr inbounds [100 x i32], [100 x i32]* %4, i64 0, i64 0
  %72 = getelementptr inbounds i32, i32* %71, i64 1
  store i32* %72, i32** %3, align 8
  br label %73

73:                                               ; preds = %84, %67
  %74 = load i32*, i32** %3, align 8
  %75 = getelementptr inbounds [100 x i32], [100 x i32]* %4, i64 0, i64 0
  %76 = load i32, i32* %5, align 4
  %77 = sext i32 %76 to i64
  %78 = getelementptr inbounds i32, i32* %75, i64 %77
  %79 = icmp ult i32* %74, %78
  br i1 %79, label %80, label %87

80:                                               ; preds = %73
  %81 = load i32*, i32** %3, align 8
  %82 = load i32, i32* %81, align 4
  %83 = call i32 (i8*, ...) @printf(i8* getelementptr inbounds ([4 x i8], [4 x i8]* @.str.1, i64 0, i64 0), i32 %82)
  br label %84

84:                                               ; preds = %80
  %85 = load i32*, i32** %3, align 8
  %86 = getelementptr inbounds i32, i32* %85, i32 1
  store i32* %86, i32** %3, align 8
  br label %73

87:                                               ; preds = %73
  ret void
}

; Function Attrs: argmemonly nounwind willreturn
declare void @llvm.memset.p0i8.i64(i8* nocapture writeonly, i8, i64, i1 immarg) #1

declare dso_local i32 @__isoc99_scanf(i8*, ...) #2

declare dso_local i32 @printf(i8*, ...) #2


!llvm.module.flags = !{!0}
!llvm.ident = !{!1}

!0 = !{i32 1, !"wchar_size", i32 4}
!1 = !{!"clang version 10.0.0-4ubuntu1 "}
